target datalayout = "e-m:e-p270:32:32-p271:32:32-p272:64:64-i64:64-i128:128-f80:128-n8:16:32:64-S128"
target triple = "x86_64-pc-linux-gnu"

%struct.cache_time = type { i32, i32 }
%struct.object_id = type { [32 x i8], i32 }
%struct.cache_entry = type { %struct.hashmap_entry, %struct.stat_data, i32, i32, i32, i32, i32, %struct.object_id, [0 x i8] }
%struct.hashmap_entry = type { ptr, i32 }
%struct.stat_data = type { %struct.cache_time, %struct.cache_time, i32, i32, i32, i32, i32 }

@.str = private unnamed_addr constant [1 x i8] zeroinitializer, align 1
@.str.9 = private unnamed_addr constant [18 x i8] c"invalid path '%s'\00", align 1
@git_gettext_enabled = external global i32, align 4

; Function Attrs: inlinehint nounwind uwtable
define internal ptr @mem_pool__ce_calloc(ptr noundef %0, i64 noundef %1) #3 {
  %3 = alloca ptr, align 8
  %4 = alloca i64, align 8
  %5 = alloca ptr, align 8
  store ptr %0, ptr %3, align 8, !tbaa !76
  store i64 %1, ptr %4, align 8, !tbaa !31
  call void @llvm.lifetime.start.p0(i64 8, ptr %5) #12
  %6 = load ptr, ptr %3, align 8, !tbaa !76
  %7 = load i64, ptr %4, align 8, !tbaa !31
  %8 = add i64 108, %7
  %9 = add i64 %8, 1
  %10 = call ptr @mem_pool_calloc(ptr noundef %6, i64 noundef 1, i64 noundef %9)
  store ptr %10, ptr %5, align 8, !tbaa !29
  %11 = load ptr, ptr %5, align 8, !tbaa !29
  %12 = getelementptr inbounds nuw %struct.cache_entry, ptr %11, i32 0, i32 4
  store i32 1, ptr %12, align 4, !tbaa !9
  %13 = load ptr, ptr %5, align 8, !tbaa !29
  call void @llvm.lifetime.end.p0(i64 8, ptr %5) #12
  ret ptr %13
}

; Function Attrs: inlinehint nounwind uwtable
define internal i32 @create_ce_mode(i32 noundef %0) #3 {
  %2 = alloca i32, align 4
  %3 = alloca i32, align 4
  store i32 %0, ptr %3, align 4, !tbaa !9
  %4 = load i32, ptr %3, align 4, !tbaa !9
  %5 = and i32 %4, 61440
  %6 = icmp eq i32 %5, 40960
  br i1 %6, label %7, label %8

7:                                                ; preds = %1
  store i32 40960, ptr %2, align 4
  br label %27

8:                                                ; preds = %1
  %9 = load i32, ptr %3, align 4, !tbaa !9
  %10 = icmp eq i32 %9, 16384
  br i1 %10, label %11, label %12

11:                                               ; preds = %8
  store i32 16384, ptr %2, align 4
  br label %27

12:                                               ; preds = %8
  %13 = load i32, ptr %3, align 4, !tbaa !9
  %14 = and i32 %13, 61440
  %15 = icmp eq i32 %14, 16384
  br i1 %15, label %20, label %16

16:                                               ; preds = %12
  %17 = load i32, ptr %3, align 4, !tbaa !9
  %18 = and i32 %17, 61440
  %19 = icmp eq i32 %18, 57344
  br i1 %19, label %20, label %21

20:                                               ; preds = %16, %12
  store i32 57344, ptr %2, align 4
  br label %27

21:                                               ; preds = %16
  %22 = load i32, ptr %3, align 4, !tbaa !9
  %23 = and i32 %22, 64
  %24 = icmp ne i32 %23, 0
  %25 = select i1 %24, i32 493, i32 420
  %26 = or i32 32768, %25
  store i32 %26, ptr %2, align 4
  br label %27

27:                                               ; preds = %21, %20, %11, %7
  %28 = load i32, ptr %2, align 4
  ret i32 %28
}

; Function Attrs: inlinehint nounwind uwtable
define internal i32 @create_ce_flags(i32 noundef %0) #3 {
  %2 = alloca i32, align 4
  store i32 %0, ptr %2, align 4, !tbaa !9
  %3 = load i32, ptr %2, align 4, !tbaa !9
  %4 = shl i32 %3, 12
  ret i32 %4
}

; Function Attrs: inlinehint nounwind uwtable
define internal void @oidcpy(ptr noundef %0, ptr noundef %1) #3 {
  %3 = alloca ptr, align 8
  %4 = alloca ptr, align 8
  store ptr %0, ptr %3, align 8, !tbaa !71
  store ptr %1, ptr %4, align 8, !tbaa !71
  %5 = load ptr, ptr %3, align 8, !tbaa !71
  %6 = getelementptr inbounds nuw %struct.object_id, ptr %5, i32 0, i32 0
  %7 = getelementptr inbounds [32 x i8], ptr %6, i64 0, i64 0
  %8 = load ptr, ptr %4, align 8, !tbaa !71
  %9 = getelementptr inbounds nuw %struct.object_id, ptr %8, i32 0, i32 0
  %10 = getelementptr inbounds [32 x i8], ptr %9, i64 0, i64 0
  call void @llvm.memcpy.p0.p0.i64(ptr align 4 %7, ptr align 4 %10, i64 32, i1 false)
  %11 = load ptr, ptr %4, align 8, !tbaa !71
  %12 = getelementptr inbounds nuw %struct.object_id, ptr %11, i32 0, i32 1
  %13 = load i32, ptr %12, align 4, !tbaa !74
  %14 = load ptr, ptr %3, align 8, !tbaa !71
  %15 = getelementptr inbounds nuw %struct.object_id, ptr %14, i32 0, i32 1
  store i32 %13, ptr %15, align 4, !tbaa !74
  ret void
}

; Function Attrs: nounwind uwtable
define dso_local ptr @make_empty_transient_cache_entry(i64 noundef %0, ptr noundef %1) #0 {
  %3 = alloca ptr, align 8
  %4 = alloca i64, align 8
  %5 = alloca ptr, align 8
  store i64 %0, ptr %4, align 8, !tbaa !31
  store ptr %1, ptr %5, align 8, !tbaa !76
  %6 = load ptr, ptr %5, align 8, !tbaa !76
  %7 = icmp ne ptr %6, null
  br i1 %7, label %8, label %12

8:                                                ; preds = %2
  %9 = load ptr, ptr %5, align 8, !tbaa !76
  %10 = load i64, ptr %4, align 8, !tbaa !31
  %11 = call ptr @mem_pool__ce_calloc(ptr noundef %9, i64 noundef %10)
  store ptr %11, ptr %3, align 8
  br label %17

12:                                               ; preds = %2
  %13 = load i64, ptr %4, align 8, !tbaa !31
  %14 = add i64 108, %13
  %15 = add i64 %14, 1
  %16 = call ptr @xcalloc(i64 noundef 1, i64 noundef %15)
  store ptr %16, ptr %3, align 8
  br label %17

17:                                               ; preds = %12, %8
  %18 = load ptr, ptr %3, align 8
  ret ptr %18
}

; Function Attrs: inlinehint nounwind uwtable
define internal i32 @const_error() #3 {
  ret i32 -1
}

; Function Attrs: inlinehint nounwind uwtable
define internal ptr @_(ptr noundef %0) #3 {
  %2 = alloca ptr, align 8
  %3 = alloca ptr, align 8
  store ptr %0, ptr %3, align 8, !tbaa !11
  %4 = load ptr, ptr %3, align 8, !tbaa !11
  %5 = load i8, ptr %4, align 1, !tbaa !73
  %6 = icmp ne i8 %5, 0
  br i1 %6, label %8, label %7

7:                                                ; preds = %1
  store ptr @.str, ptr %2, align 8
  br label %16

8:                                                ; preds = %1
  %9 = load i32, ptr @git_gettext_enabled, align 4, !tbaa !9
  %10 = icmp ne i32 %9, 0
  br i1 %10, label %13, label %11

11:                                               ; preds = %8
  %12 = load ptr, ptr %3, align 8, !tbaa !11
  store ptr %12, ptr %2, align 8
  br label %16

13:                                               ; preds = %8
  %14 = load ptr, ptr %3, align 8, !tbaa !11
  %15 = call ptr @dcgettext(ptr noundef null, ptr noundef %14, i32 noundef 5) #12
  store ptr %15, ptr %2, align 8
  br label %16

16:                                               ; preds = %13, %11, %7
  %17 = load ptr, ptr %2, align 8
  ret ptr %17
}

; Function Attrs: nounwind uwtable
define dso_local i32 @verify_path(ptr noundef %0, i32 noundef %1) #0 {
  %3 = alloca ptr, align 8
  %4 = alloca i32, align 4
  store ptr %0, ptr %3, align 8, !tbaa !11
  store i32 %1, ptr %4, align 4, !tbaa !9
  %5 = load ptr, ptr %3, align 8, !tbaa !11
  %6 = load i32, ptr %4, align 4, !tbaa !9
  %7 = call i32 @verify_path_internal(ptr noundef %5, i32 noundef %6)
  %8 = icmp eq i32 %7, 0
  %9 = zext i1 %8 to i32
  ret i32 %9
}

; Function Attrs: nounwind uwtable
define dso_local ptr @make_transient_cache_entry(i32 noundef %0, ptr noundef %1, ptr noundef %2, i32 noundef %3, ptr noundef %4) #0 {
  %6 = alloca ptr, align 8
  %7 = alloca i32, align 4
  %8 = alloca ptr, align 8
  %9 = alloca ptr, align 8
  %10 = alloca i32, align 4
  %11 = alloca ptr, align 8
  %12 = alloca ptr, align 8
  %13 = alloca i32, align 4
  %14 = alloca i32, align 4
  store i32 %0, ptr %7, align 4, !tbaa !9
  store ptr %1, ptr %8, align 8, !tbaa !71
  store ptr %2, ptr %9, align 8, !tbaa !11
  store i32 %3, ptr %10, align 4, !tbaa !9
  store ptr %4, ptr %11, align 8, !tbaa !76
  call void @llvm.lifetime.start.p0(i64 8, ptr %12) #12
  call void @llvm.lifetime.start.p0(i64 4, ptr %13) #12
  %15 = load ptr, ptr %9, align 8, !tbaa !11
  %16 = load i32, ptr %7, align 4, !tbaa !9
  %17 = call i32 @verify_path(ptr noundef %15, i32 noundef %16)
  %18 = icmp ne i32 %17, 0
  br i1 %18, label %24, label %19

19:                                               ; preds = %5
  %20 = call ptr @_(ptr noundef @.str.9)
  %21 = load ptr, ptr %9, align 8, !tbaa !11
  %22 = call i32 (ptr, ...) @error(ptr noundef %20, ptr noundef %21)
  %23 = call i32 @const_error()
  store ptr null, ptr %6, align 8
  store i32 1, ptr %14, align 4
  br label %53

24:                                               ; preds = %5
  %25 = load ptr, ptr %9, align 8, !tbaa !11
  %26 = call i64 @strlen(ptr noundef %25) #13
  %27 = trunc i64 %26 to i32
  store i32 %27, ptr %13, align 4, !tbaa !9
  %28 = load i32, ptr %13, align 4, !tbaa !9
  %29 = sext i32 %28 to i64
  %30 = load ptr, ptr %11, align 8, !tbaa !76
  %31 = call ptr @make_empty_transient_cache_entry(i64 noundef %29, ptr noundef %30)
  store ptr %31, ptr %12, align 8, !tbaa !29
  %32 = load ptr, ptr %12, align 8, !tbaa !29
  %33 = getelementptr inbounds nuw %struct.cache_entry, ptr %32, i32 0, i32 7
  %34 = load ptr, ptr %8, align 8, !tbaa !71
  call void @oidcpy(ptr noundef %33, ptr noundef %34)
  %35 = load ptr, ptr %12, align 8, !tbaa !29
  %36 = getelementptr inbounds nuw %struct.cache_entry, ptr %35, i32 0, i32 8
  %37 = getelementptr inbounds [0 x i8], ptr %36, i64 0, i64 0
  %38 = load ptr, ptr %9, align 8, !tbaa !11
  %39 = load i32, ptr %13, align 4, !tbaa !9
  %40 = sext i32 %39 to i64
  call void @llvm.memcpy.p0.p0.i64(ptr align 4 %37, ptr align 1 %38, i64 %40, i1 false)
  %41 = load i32, ptr %10, align 4, !tbaa !9
  %42 = call i32 @create_ce_flags(i32 noundef %41)
  %43 = load ptr, ptr %12, align 8, !tbaa !29
  %44 = getelementptr inbounds nuw %struct.cache_entry, ptr %43, i32 0, i32 3
  store i32 %42, ptr %44, align 8, !tbaa !9
  %45 = load i32, ptr %13, align 4, !tbaa !9
  %46 = load ptr, ptr %12, align 8, !tbaa !29
  %47 = getelementptr inbounds nuw %struct.cache_entry, ptr %46, i32 0, i32 5
  store i32 %45, ptr %47, align 8, !tbaa !9
  %48 = load i32, ptr %7, align 4, !tbaa !9
  %49 = call i32 @create_ce_mode(i32 noundef %48)
  %50 = load ptr, ptr %12, align 8, !tbaa !29
  %51 = getelementptr inbounds nuw %struct.cache_entry, ptr %50, i32 0, i32 2
  store i32 %49, ptr %51, align 4, !tbaa !9
  %52 = load ptr, ptr %12, align 8, !tbaa !29
  store ptr %52, ptr %6, align 8
  store i32 1, ptr %14, align 4
  br label %53

53:                                               ; preds = %24, %19
  call void @llvm.lifetime.end.p0(i64 4, ptr %13) #12
  call void @llvm.lifetime.end.p0(i64 8, ptr %12) #12
  %54 = load ptr, ptr %6, align 8
  ret ptr %54
}