; Function Attrs: nounwind uwtable
define dso_local ptr @make_transient_cache_entry(i32 noundef %0, ptr noundef readonly captures(none) %1, ptr noundef %2, i32 noundef %3, ptr noundef %4) local_unnamed_addr #0 {
  %6 = tail call fastcc i32 @verify_path_internal(ptr noundef %2, i32 noundef %0)
  %.not = icmp eq i32 %6, 0
  br i1 %.not, label %12, label %7

7:                                                ; preds = %5
  %8 = load i32, ptr @git_gettext_enabled, align 4, !tbaa !32
  %.not4.i = icmp eq i32 %8, 0
  br i1 %.not4.i, label %_.exit, label %9

9:                                                ; preds = %7
  %10 = tail call ptr @dcgettext(ptr noundef null, ptr noundef nonnull @.str.9, i32 noundef 5) #30
  br label %_.exit

_.exit:                                           ; preds = %7, %9
  %.0.i = phi ptr [ %10, %9 ], [ @.str.9, %7 ]
  %11 = tail call i32 (ptr, ...) @error(ptr noundef %.0.i, ptr noundef %2) #30
  br label %39

12:                                               ; preds = %5
  %13 = tail call i64 @strlen(ptr noundef nonnull dereferenceable(1) %2) #29
  %14 = trunc i64 %13 to i32
  %sext = shl i64 %13, 32
  %15 = ashr exact i64 %sext, 32
  %.not.i = icmp eq ptr %4, null
  %16 = add nsw i64 %15, 109
  br i1 %.not.i, label %20, label %17

17:                                               ; preds = %12
  %18 = tail call ptr @mem_pool_calloc(ptr noundef nonnull %4, i64 noundef 1, i64 noundef %16) #30
  %19 = getelementptr inbounds nuw i8, ptr %18, i64 60
  store i32 1, ptr %19, align 4, !tbaa !32
  br label %make_empty_transient_cache_entry.exit

20:                                               ; preds = %12
  %21 = tail call ptr @xcalloc(i64 noundef 1, i64 noundef %16) #30
  br label %make_empty_transient_cache_entry.exit

make_empty_transient_cache_entry.exit:            ; preds = %17, %20
  %.0.i18 = phi ptr [ %18, %17 ], [ %21, %20 ]
  %22 = getelementptr inbounds nuw i8, ptr %.0.i18, i64 72
  tail call void @llvm.memcpy.p0.p0.i64(ptr noundef nonnull align 4 dereferenceable(32) %22, ptr noundef nonnull readonly align 4 dereferenceable(32) %1, i64 32, i1 false)
  %23 = getelementptr inbounds nuw i8, ptr %1, i64 32
  %24 = load i32, ptr %23, align 4, !tbaa !79
  %25 = getelementptr inbounds nuw i8, ptr %.0.i18, i64 104
  store i32 %24, ptr %25, align 4, !tbaa !79
  %26 = getelementptr inbounds nuw i8, ptr %.0.i18, i64 108
  tail call void @llvm.memcpy.p0.p0.i64(ptr nonnull align 4 %26, ptr nonnull align 1 %2, i64 %15, i1 false)
  %27 = shl i32 %3, 12
  %28 = getelementptr inbounds nuw i8, ptr %.0.i18, i64 56
  store i32 %27, ptr %28, align 8, !tbaa !32
  %29 = getelementptr inbounds nuw i8, ptr %.0.i18, i64 64
  store i32 %14, ptr %29, align 8, !tbaa !32
  %30 = and i32 %0, 61440
  %31 = icmp eq i32 %30, 40960
  br i1 %31, label %create_ce_mode.exit, label %32

32:                                               ; preds = %make_empty_transient_cache_entry.exit
  %33 = icmp eq i32 %0, 16384
  br i1 %33, label %create_ce_mode.exit, label %34

34:                                               ; preds = %32
  %trunc.i = trunc nuw i32 %30 to i16
  switch i16 %trunc.i, label %35 [
    i16 16384, label %create_ce_mode.exit
    i16 -8192, label %create_ce_mode.exit
  ]

35:                                               ; preds = %34
  %36 = and i32 %0, 64
  %.not.i20 = icmp eq i32 %36, 0
  %37 = select i1 %.not.i20, i32 33188, i32 33261
  br label %create_ce_mode.exit

create_ce_mode.exit:                              ; preds = %make_empty_transient_cache_entry.exit, %32, %34, %34, %35
  %.0.i19 = phi i32 [ %37, %35 ], [ 40960, %make_empty_transient_cache_entry.exit ], [ 16384, %32 ], [ 57344, %34 ], [ 57344, %34 ]
  %38 = getelementptr inbounds nuw i8, ptr %.0.i18, i64 52
  store i32 %.0.i19, ptr %38, align 4, !tbaa !32
  br label %39

39:                                               ; preds = %create_ce_mode.exit, %_.exit
  %.0 = phi ptr [ %.0.i18, %create_ce_mode.exit ], [ null, %_.exit ]
  ret ptr %.0
}